target datalayout = "e-m:e-p270:32:32-p271:32:32-p272:64:64-i64:64-i128:128-f80:128-n8:16:32:64-S128"
target triple = "x86_64-unknown-linux-gnu"

%struct.btDbvt = type { ptr, ptr, i32, i32, i32, [4 x i8], %class.btAlignedObjectArray }
%class.btAlignedObjectArray = type <{ %class.btAlignedAllocator, [3 x i8], i32, i32, [4 x i8], ptr, i8, [7 x i8] }>
%class.btAlignedAllocator = type { i8 }

; Function Attrs: mustprogress nounwind uwtable
define linkonce_odr dso_local void @_ZN20btAlignedObjectArrayIN6btDbvt6sStkNNEE4initEv(ptr noundef nonnull align 8 dereferenceable(25) %this) #1 comdat align 2 {
entry:
  %this.addr = alloca ptr, align 8
  store ptr %this, ptr %this.addr, align 8
  %this1 = load ptr, ptr %this.addr, align 8
  %m_ownsMemory = getelementptr inbounds %class.btAlignedObjectArray, ptr %this1, i32 0, i32 6
  store i8 1, ptr %m_ownsMemory, align 8
  %m_data = getelementptr inbounds %class.btAlignedObjectArray, ptr %this1, i32 0, i32 5
  store ptr null, ptr %m_data, align 8
  %m_size = getelementptr inbounds %class.btAlignedObjectArray, ptr %this1, i32 0, i32 2
  store i32 0, ptr %m_size, align 4
  %m_capacity = getelementptr inbounds %class.btAlignedObjectArray, ptr %this1, i32 0, i32 3
  store i32 0, ptr %m_capacity, align 8
  ret void
}

; Function Attrs: mustprogress nounwind uwtable
define linkonce_odr dso_local void @_ZN18btAlignedAllocatorIN6btDbvt6sStkNNELj16EEC2Ev(ptr noundef nonnull align 1 dereferenceable(1) %this) unnamed_addr #1 comdat align 2 {
entry:
  %this.addr = alloca ptr, align 8
  store ptr %this, ptr %this.addr, align 8
  ret void
}

; Function Attrs: mustprogress uwtable
define linkonce_odr dso_local void @_ZN20btAlignedObjectArrayIN6btDbvt6sStkNNEEC2Ev(ptr noundef nonnull align 8 dereferenceable(25) %this) unnamed_addr #2 comdat align 2 {
entry:
  %this.addr = alloca ptr, align 8
  store ptr %this, ptr %this.addr, align 8
  %this1 = load ptr, ptr %this.addr, align 8
  %m_allocator = getelementptr inbounds %class.btAlignedObjectArray, ptr %this1, i32 0, i32 0
  call void @_ZN18btAlignedAllocatorIN6btDbvt6sStkNNELj16EEC2Ev(ptr noundef nonnull align 1 dereferenceable(1) %m_allocator)
  call void @_ZN20btAlignedObjectArrayIN6btDbvt6sStkNNEE4initEv(ptr noundef nonnull align 8 dereferenceable(25) %this1)
  ret void
}

; Function Attrs: mustprogress uwtable
define dso_local void @_ZN6btDbvtC2Ev(ptr noundef nonnull align 8 dereferenceable(64) %this) unnamed_addr #2 align 2 {
entry:
  %this.addr = alloca ptr, align 8
  store ptr %this, ptr %this.addr, align 8
  %this1 = load ptr, ptr %this.addr, align 8
  %m_stkStack = getelementptr inbounds %struct.btDbvt, ptr %this1, i32 0, i32 6
  call void @_ZN20btAlignedObjectArrayIN6btDbvt6sStkNNEEC2Ev(ptr noundef nonnull align 8 dereferenceable(25) %m_stkStack)
  %m_root = getelementptr inbounds %struct.btDbvt, ptr %this1, i32 0, i32 0
  store ptr null, ptr %m_root, align 8
  %m_free = getelementptr inbounds %struct.btDbvt, ptr %this1, i32 0, i32 1
  store ptr null, ptr %m_free, align 8
  %m_lkhd = getelementptr inbounds %struct.btDbvt, ptr %this1, i32 0, i32 2
  store i32 -1, ptr %m_lkhd, align 8
  %m_leaves = getelementptr inbounds %struct.btDbvt, ptr %this1, i32 0, i32 3
  store i32 0, ptr %m_leaves, align 4
  %m_opath = getelementptr inbounds %struct.btDbvt, ptr %this1, i32 0, i32 4
  store i32 0, ptr %m_opath, align 8
  ret void
}