; Function Attrs: mustprogress nofree norecurse nosync nounwind willreturn memory(argmem: write) uwtable
define dso_local void @_ZN6btDbvtC2Ev(ptr nocapture noundef nonnull writeonly align 8 dereferenceable(64) %this) unnamed_addr #0 align 2 {
entry:
  %m_ownsMemory.i.i = getelementptr inbounds i8, ptr %this, i64 56
  store i8 1, ptr %m_ownsMemory.i.i, align 8
  %m_data.i.i = getelementptr inbounds i8, ptr %this, i64 48
  store ptr null, ptr %m_data.i.i, align 8
  %m_size.i.i = getelementptr inbounds i8, ptr %this, i64 36
  store i32 0, ptr %m_size.i.i, align 4
  %m_capacity.i.i = getelementptr inbounds i8, ptr %this, i64 40
  store i32 0, ptr %m_capacity.i.i, align 8
  %m_lkhd = getelementptr inbounds i8, ptr %this, i64 16
  tail call void @llvm.memset.p0.i64(ptr noundef nonnull align 8 dereferenceable(16) %this, i8 0, i64 16, i1 false)
  store i32 -1, ptr %m_lkhd, align 8
  %m_leaves = getelementptr inbounds i8, ptr %this, i64 20
  store i32 0, ptr %m_leaves, align 4
  %m_opath = getelementptr inbounds i8, ptr %this, i64 24
  store i32 0, ptr %m_opath, align 8
  ret void
}